target datalayout = "e-m:e-p270:32:32-p271:32:32-p272:64:64-i64:64-i128:128-f80:128-n8:16:32:64-S128"
target triple = "x86_64-pc-linux-gnu"

%struct._object = type { %union.anon, ptr }
%union.anon = type { i64 }
%struct.anon = type { i32, i32 }
%struct.typevarobject = type { %struct._object, ptr, ptr, ptr, ptr, ptr, ptr, ptr, i8, i8, i8 }

; Function Attrs: alwaysinline nounwind uwtable
define internal i32 @_Py_IsImmortal(ptr noundef %0) #4 {
  %2 = alloca ptr, align 8
  store ptr %0, ptr %2, align 8, !tbaa !4
  %3 = load ptr, ptr %2, align 8, !tbaa !4
  %4 = getelementptr inbounds nuw %struct._object, ptr %3, i32 0, i32 0
  %5 = getelementptr inbounds nuw %struct.anon, ptr %4, i32 0, i32 0
  %6 = load i32, ptr %5, align 8, !tbaa !27
  %7 = icmp slt i32 %6, 0
  %8 = zext i1 %7 to i32
  ret i32 %8
}

; Function Attrs: alwaysinline nounwind uwtable
define internal void @Py_DECREF(ptr noundef %0) #4 {
  %2 = alloca ptr, align 8
  store ptr %0, ptr %2, align 8, !tbaa !4
  %3 = load ptr, ptr %2, align 8, !tbaa !4
  %4 = call i32 @_Py_IsImmortal(ptr noundef %3)
  %5 = icmp ne i32 %4, 0
  br i1 %5, label %6, label %7

6:                                                ; preds = %1
  br label %16

7:                                                ; preds = %1
  %8 = load ptr, ptr %2, align 8, !tbaa !4
  %9 = getelementptr inbounds nuw %struct._object, ptr %8, i32 0, i32 0
  %10 = getelementptr inbounds nuw %struct.anon, ptr %9, i32 0, i32 0
  %11 = load i32, ptr %10, align 8, !tbaa !27
  %12 = add i32 %11, -1
  store i32 %12, ptr %10, align 8, !tbaa !27
  %13 = icmp eq i32 %12, 0
  br i1 %13, label %14, label %16

14:                                               ; preds = %7
  %15 = load ptr, ptr %2, align 8, !tbaa !4
  call void @_Py_Dealloc(ptr noundef %15)
  br label %16

16:                                               ; preds = %6, %14, %7
  ret void
}

; Function Attrs: nounwind uwtable
define internal i32 @typevar_clear(ptr noundef %0) #0 {
  %2 = alloca ptr, align 8
  %3 = alloca ptr, align 8
  %4 = alloca ptr, align 8
  %5 = alloca ptr, align 8
  %6 = alloca ptr, align 8
  %7 = alloca ptr, align 8
  %8 = alloca ptr, align 8
  %9 = alloca ptr, align 8
  %10 = alloca ptr, align 8
  %11 = alloca ptr, align 8
  %12 = alloca ptr, align 8
  %13 = alloca ptr, align 8
  %14 = alloca ptr, align 8
  store ptr %0, ptr %2, align 8, !tbaa !30
  br label %15

15:                                               ; preds = %1
  call void @llvm.lifetime.start.p0(i64 8, ptr %3) #6
  %16 = load ptr, ptr %2, align 8, !tbaa !30
  %17 = getelementptr inbounds nuw %struct.typevarobject, ptr %16, i32 0, i32 2
  store ptr %17, ptr %3, align 8, !tbaa !28
  call void @llvm.lifetime.start.p0(i64 8, ptr %4) #6
  %18 = load ptr, ptr %3, align 8, !tbaa !28
  %19 = load ptr, ptr %18, align 8, !tbaa !4
  store ptr %19, ptr %4, align 8, !tbaa !4
  %20 = load ptr, ptr %4, align 8, !tbaa !4
  %21 = icmp ne ptr %20, null
  br i1 %21, label %22, label %25

22:                                               ; preds = %15
  %23 = load ptr, ptr %3, align 8, !tbaa !28
  store ptr null, ptr %23, align 8, !tbaa !4
  %24 = load ptr, ptr %4, align 8, !tbaa !4
  call void @Py_DECREF(ptr noundef %24)
  br label %25

25:                                               ; preds = %22, %15
  call void @llvm.lifetime.end.p0(i64 8, ptr %4) #6
  call void @llvm.lifetime.end.p0(i64 8, ptr %3) #6
  br label %26

26:                                               ; preds = %25
  br label %27

27:                                               ; preds = %26
  call void @llvm.lifetime.start.p0(i64 8, ptr %5) #6
  %28 = load ptr, ptr %2, align 8, !tbaa !30
  %29 = getelementptr inbounds nuw %struct.typevarobject, ptr %28, i32 0, i32 3
  store ptr %29, ptr %5, align 8, !tbaa !28
  call void @llvm.lifetime.start.p0(i64 8, ptr %6) #6
  %30 = load ptr, ptr %5, align 8, !tbaa !28
  %31 = load ptr, ptr %30, align 8, !tbaa !4
  store ptr %31, ptr %6, align 8, !tbaa !4
  %32 = load ptr, ptr %6, align 8, !tbaa !4
  %33 = icmp ne ptr %32, null
  br i1 %33, label %34, label %37

34:                                               ; preds = %27
  %35 = load ptr, ptr %5, align 8, !tbaa !28
  store ptr null, ptr %35, align 8, !tbaa !4
  %36 = load ptr, ptr %6, align 8, !tbaa !4
  call void @Py_DECREF(ptr noundef %36)
  br label %37

37:                                               ; preds = %34, %27
  call void @llvm.lifetime.end.p0(i64 8, ptr %6) #6
  call void @llvm.lifetime.end.p0(i64 8, ptr %5) #6
  br label %38

38:                                               ; preds = %37
  br label %39

39:                                               ; preds = %38
  call void @llvm.lifetime.start.p0(i64 8, ptr %7) #6
  %40 = load ptr, ptr %2, align 8, !tbaa !30
  %41 = getelementptr inbounds nuw %struct.typevarobject, ptr %40, i32 0, i32 4
  store ptr %41, ptr %7, align 8, !tbaa !28
  call void @llvm.lifetime.start.p0(i64 8, ptr %8) #6
  %42 = load ptr, ptr %7, align 8, !tbaa !28
  %43 = load ptr, ptr %42, align 8, !tbaa !4
  store ptr %43, ptr %8, align 8, !tbaa !4
  %44 = load ptr, ptr %8, align 8, !tbaa !4
  %45 = icmp ne ptr %44, null
  br i1 %45, label %46, label %49

46:                                               ; preds = %39
  %47 = load ptr, ptr %7, align 8, !tbaa !28
  store ptr null, ptr %47, align 8, !tbaa !4
  %48 = load ptr, ptr %8, align 8, !tbaa !4
  call void @Py_DECREF(ptr noundef %48)
  br label %49

49:                                               ; preds = %46, %39
  call void @llvm.lifetime.end.p0(i64 8, ptr %8) #6
  call void @llvm.lifetime.end.p0(i64 8, ptr %7) #6
  br label %50

50:                                               ; preds = %49
  br label %51

51:                                               ; preds = %50
  call void @llvm.lifetime.start.p0(i64 8, ptr %9) #6
  %52 = load ptr, ptr %2, align 8, !tbaa !30
  %53 = getelementptr inbounds nuw %struct.typevarobject, ptr %52, i32 0, i32 5
  store ptr %53, ptr %9, align 8, !tbaa !28
  call void @llvm.lifetime.start.p0(i64 8, ptr %10) #6
  %54 = load ptr, ptr %9, align 8, !tbaa !28
  %55 = load ptr, ptr %54, align 8, !tbaa !4
  store ptr %55, ptr %10, align 8, !tbaa !4
  %56 = load ptr, ptr %10, align 8, !tbaa !4
  %57 = icmp ne ptr %56, null
  br i1 %57, label %58, label %61

58:                                               ; preds = %51
  %59 = load ptr, ptr %9, align 8, !tbaa !28
  store ptr null, ptr %59, align 8, !tbaa !4
  %60 = load ptr, ptr %10, align 8, !tbaa !4
  call void @Py_DECREF(ptr noundef %60)
  br label %61

61:                                               ; preds = %58, %51
  call void @llvm.lifetime.end.p0(i64 8, ptr %10) #6
  call void @llvm.lifetime.end.p0(i64 8, ptr %9) #6
  br label %62

62:                                               ; preds = %61
  br label %63

63:                                               ; preds = %62
  call void @llvm.lifetime.start.p0(i64 8, ptr %11) #6
  %64 = load ptr, ptr %2, align 8, !tbaa !30
  %65 = getelementptr inbounds nuw %struct.typevarobject, ptr %64, i32 0, i32 6
  store ptr %65, ptr %11, align 8, !tbaa !28
  call void @llvm.lifetime.start.p0(i64 8, ptr %12) #6
  %66 = load ptr, ptr %11, align 8, !tbaa !28
  %67 = load ptr, ptr %66, align 8, !tbaa !4
  store ptr %67, ptr %12, align 8, !tbaa !4
  %68 = load ptr, ptr %12, align 8, !tbaa !4
  %69 = icmp ne ptr %68, null
  br i1 %69, label %70, label %73

70:                                               ; preds = %63
  %71 = load ptr, ptr %11, align 8, !tbaa !28
  store ptr null, ptr %71, align 8, !tbaa !4
  %72 = load ptr, ptr %12, align 8, !tbaa !4
  call void @Py_DECREF(ptr noundef %72)
  br label %73

73:                                               ; preds = %70, %63
  call void @llvm.lifetime.end.p0(i64 8, ptr %12) #6
  call void @llvm.lifetime.end.p0(i64 8, ptr %11) #6
  br label %74

74:                                               ; preds = %73
  br label %75

75:                                               ; preds = %74
  call void @llvm.lifetime.start.p0(i64 8, ptr %13) #6
  %76 = load ptr, ptr %2, align 8, !tbaa !30
  %77 = getelementptr inbounds nuw %struct.typevarobject, ptr %76, i32 0, i32 7
  store ptr %77, ptr %13, align 8, !tbaa !28
  call void @llvm.lifetime.start.p0(i64 8, ptr %14) #6
  %78 = load ptr, ptr %13, align 8, !tbaa !28
  %79 = load ptr, ptr %78, align 8, !tbaa !4
  store ptr %79, ptr %14, align 8, !tbaa !4
  %80 = load ptr, ptr %14, align 8, !tbaa !4
  %81 = icmp ne ptr %80, null
  br i1 %81, label %82, label %85

82:                                               ; preds = %75
  %83 = load ptr, ptr %13, align 8, !tbaa !28
  store ptr null, ptr %83, align 8, !tbaa !4
  %84 = load ptr, ptr %14, align 8, !tbaa !4
  call void @Py_DECREF(ptr noundef %84)
  br label %85

85:                                               ; preds = %82, %75
  call void @llvm.lifetime.end.p0(i64 8, ptr %14) #6
  call void @llvm.lifetime.end.p0(i64 8, ptr %13) #6
  br label %86

86:                                               ; preds = %85
  %87 = load ptr, ptr %2, align 8, !tbaa !30
  call void @PyObject_ClearManagedDict(ptr noundef %87)
  ret i32 0
}