; Function Attrs: nounwind uwtable
define internal noundef i32 @typevar_clear(ptr noundef %0) #0 {
  %2 = getelementptr inbounds nuw i8, ptr %0, i64 24
  %3 = load ptr, ptr %2, align 8, !tbaa !16
  %.not = icmp eq ptr %3, null
  br i1 %.not, label %Py_DECREF.exit50, label %4

4:                                                ; preds = %1
  store ptr null, ptr %2, align 8, !tbaa !16
  %5 = load i32, ptr %3, align 8, !tbaa !27
  %.not.i49 = icmp sgt i32 %5, -1
  br i1 %.not.i49, label %6, label %Py_DECREF.exit50

6:                                                ; preds = %4
  %7 = add nsw i32 %5, -1
  store i32 %7, ptr %3, align 8, !tbaa !27
  %8 = icmp eq i32 %7, 0
  br i1 %8, label %9, label %Py_DECREF.exit50

9:                                                ; preds = %6
  tail call void @_Py_Dealloc(ptr noundef nonnull %3) #8
  br label %Py_DECREF.exit50

Py_DECREF.exit50:                                 ; preds = %9, %6, %4, %1
  %10 = getelementptr inbounds nuw i8, ptr %0, i64 32
  %11 = load ptr, ptr %10, align 8, !tbaa !16
  %.not36 = icmp eq ptr %11, null
  br i1 %.not36, label %Py_DECREF.exit48, label %12

12:                                               ; preds = %Py_DECREF.exit50
  store ptr null, ptr %10, align 8, !tbaa !16
  %13 = load i32, ptr %11, align 8, !tbaa !27
  %.not.i47 = icmp sgt i32 %13, -1
  br i1 %.not.i47, label %14, label %Py_DECREF.exit48

14:                                               ; preds = %12
  %15 = add nsw i32 %13, -1
  store i32 %15, ptr %11, align 8, !tbaa !27
  %16 = icmp eq i32 %15, 0
  br i1 %16, label %17, label %Py_DECREF.exit48

17:                                               ; preds = %14
  tail call void @_Py_Dealloc(ptr noundef nonnull %11) #8
  br label %Py_DECREF.exit48

Py_DECREF.exit48:                                 ; preds = %17, %14, %12, %Py_DECREF.exit50
  %18 = getelementptr inbounds nuw i8, ptr %0, i64 40
  %19 = load ptr, ptr %18, align 8, !tbaa !16
  %.not37 = icmp eq ptr %19, null
  br i1 %.not37, label %Py_DECREF.exit46, label %20

20:                                               ; preds = %Py_DECREF.exit48
  store ptr null, ptr %18, align 8, !tbaa !16
  %21 = load i32, ptr %19, align 8, !tbaa !27
  %.not.i45 = icmp sgt i32 %21, -1
  br i1 %.not.i45, label %22, label %Py_DECREF.exit46

22:                                               ; preds = %20
  %23 = add nsw i32 %21, -1
  store i32 %23, ptr %19, align 8, !tbaa !27
  %24 = icmp eq i32 %23, 0
  br i1 %24, label %25, label %Py_DECREF.exit46

25:                                               ; preds = %22
  tail call void @_Py_Dealloc(ptr noundef nonnull %19) #8
  br label %Py_DECREF.exit46

Py_DECREF.exit46:                                 ; preds = %25, %22, %20, %Py_DECREF.exit48
  %26 = getelementptr inbounds nuw i8, ptr %0, i64 48
  %27 = load ptr, ptr %26, align 8, !tbaa !16
  %.not38 = icmp eq ptr %27, null
  br i1 %.not38, label %Py_DECREF.exit44, label %28

28:                                               ; preds = %Py_DECREF.exit46
  store ptr null, ptr %26, align 8, !tbaa !16
  %29 = load i32, ptr %27, align 8, !tbaa !27
  %.not.i43 = icmp sgt i32 %29, -1
  br i1 %.not.i43, label %30, label %Py_DECREF.exit44

30:                                               ; preds = %28
  %31 = add nsw i32 %29, -1
  store i32 %31, ptr %27, align 8, !tbaa !27
  %32 = icmp eq i32 %31, 0
  br i1 %32, label %33, label %Py_DECREF.exit44

33:                                               ; preds = %30
  tail call void @_Py_Dealloc(ptr noundef nonnull %27) #8
  br label %Py_DECREF.exit44

Py_DECREF.exit44:                                 ; preds = %33, %30, %28, %Py_DECREF.exit46
  %34 = getelementptr inbounds nuw i8, ptr %0, i64 56
  %35 = load ptr, ptr %34, align 8, !tbaa !16
  %.not39 = icmp eq ptr %35, null
  br i1 %.not39, label %Py_DECREF.exit42, label %36

36:                                               ; preds = %Py_DECREF.exit44
  store ptr null, ptr %34, align 8, !tbaa !16
  %37 = load i32, ptr %35, align 8, !tbaa !27
  %.not.i41 = icmp sgt i32 %37, -1
  br i1 %.not.i41, label %38, label %Py_DECREF.exit42

38:                                               ; preds = %36
  %39 = add nsw i32 %37, -1
  store i32 %39, ptr %35, align 8, !tbaa !27
  %40 = icmp eq i32 %39, 0
  br i1 %40, label %41, label %Py_DECREF.exit42

41:                                               ; preds = %38
  tail call void @_Py_Dealloc(ptr noundef nonnull %35) #8
  br label %Py_DECREF.exit42

Py_DECREF.exit42:                                 ; preds = %41, %38, %36, %Py_DECREF.exit44
  %42 = getelementptr inbounds nuw i8, ptr %0, i64 64
  %43 = load ptr, ptr %42, align 8, !tbaa !16
  %.not40 = icmp eq ptr %43, null
  br i1 %.not40, label %Py_DECREF.exit, label %44

44:                                               ; preds = %Py_DECREF.exit42
  store ptr null, ptr %42, align 8, !tbaa !16
  %45 = load i32, ptr %43, align 8, !tbaa !27
  %.not.i = icmp sgt i32 %45, -1
  br i1 %.not.i, label %46, label %Py_DECREF.exit

46:                                               ; preds = %44
  %47 = add nsw i32 %45, -1
  store i32 %47, ptr %43, align 8, !tbaa !27
  %48 = icmp eq i32 %47, 0
  br i1 %48, label %49, label %Py_DECREF.exit

49:                                               ; preds = %46
  tail call void @_Py_Dealloc(ptr noundef nonnull %43) #8
  br label %Py_DECREF.exit

Py_DECREF.exit:                                   ; preds = %49, %46, %44, %Py_DECREF.exit42
  tail call void @PyObject_ClearManagedDict(ptr noundef nonnull %0) #8
  ret i32 0
}